target datalayout = "e-m:e-p270:32:32-p271:32:32-p272:64:64-i64:64-i128:128-f80:128-n8:16:32:64-S128"
target triple = "x86_64-pc-linux-gnu"

%"class.pxrInternal_v0_24__pxrReserved__::(anonymous namespace)::_DispatchingResolver" = type { %"class.pxrInternal_v0_24__pxrReserved__::ArResolver", %"class.std::shared_ptr", %"class.std::unordered_map", i64, %"class.std::vector.10", %"class.tbb::detail::d1::enumerable_thread_specific", %"class.pxrInternal_v0_24__pxrReserved__::ArThreadLocalScopedCache" }
%"class.pxrInternal_v0_24__pxrReserved__::ArResolver" = type { ptr }
%"class.std::shared_ptr" = type { %"class.std::__shared_ptr" }
%"class.std::__shared_ptr" = type { ptr, %"class.std::__shared_count" }
%"class.std::__shared_count" = type { ptr }
%"class.std::unordered_map" = type { %"class.std::_Hashtable" }
%"class.std::_Hashtable" = type { ptr, i64, %"struct.std::__detail::_Hash_node_base", i64, %"struct.std::__detail::_Prime_rehash_policy", ptr }
%"struct.std::__detail::_Hash_node_base" = type { ptr }
%"struct.std::__detail::_Prime_rehash_policy" = type { float, i64 }
%"class.std::vector.10" = type { %"struct.std::_Vector_base.11" }
%"struct.std::_Vector_base.11" = type { %"struct.std::_Vector_base<std::shared_ptr<pxrInternal_v0_24__pxrReserved__::(anonymous namespace)::_DispatchingResolver::_PackageResolver>, std::allocator<std::shared_ptr<pxrInternal_v0_24__pxrReserved__::(anonymous namespace)::_DispatchingResolver::_PackageResolver>>>::_Vector_impl" }
%"struct.std::_Vector_base<std::shared_ptr<pxrInternal_v0_24__pxrReserved__::(anonymous namespace)::_DispatchingResolver::_PackageResolver>, std::allocator<std::shared_ptr<pxrInternal_v0_24__pxrReserved__::(anonymous namespace)::_DispatchingResolver::_PackageResolver>>>::_Vector_impl" = type { %"struct.std::_Vector_base<std::shared_ptr<pxrInternal_v0_24__pxrReserved__::(anonymous namespace)::_DispatchingResolver::_PackageResolver>, std::allocator<std::shared_ptr<pxrInternal_v0_24__pxrReserved__::(anonymous namespace)::_DispatchingResolver::_PackageResolver>>>::_Vector_impl_data" }
%"struct.std::_Vector_base<std::shared_ptr<pxrInternal_v0_24__pxrReserved__::(anonymous namespace)::_DispatchingResolver::_PackageResolver>, std::allocator<std::shared_ptr<pxrInternal_v0_24__pxrReserved__::(anonymous namespace)::_DispatchingResolver::_PackageResolver>>>::_Vector_impl_data" = type { ptr, ptr, ptr }
%"class.tbb::detail::d1::enumerable_thread_specific" = type { %"class.tbb::detail::d1::ets_base", ptr, %"class.tbb::detail::d1::concurrent_vector" }
%"class.tbb::detail::d1::ets_base" = type { ptr, %"struct.std::atomic.15", %"struct.std::atomic.17" }
%"struct.std::atomic.15" = type { %"struct.std::__atomic_base.16" }
%"struct.std::__atomic_base.16" = type { ptr }
%"struct.std::atomic.17" = type { %"struct.std::__atomic_base.18" }
%"struct.std::__atomic_base.18" = type { i64 }
%"class.tbb::detail::d1::concurrent_vector" = type { %"class.tbb::detail::d1::segment_table.base", [7 x i8] }
%"class.tbb::detail::d1::segment_table.base" = type <{ ptr, [8 x i8], %"struct.std::atomic.19", [3 x %"struct.std::atomic.21"], %"struct.std::atomic.17", %"struct.std::atomic.17", %"struct.std::atomic.23" }>
%"struct.std::atomic.19" = type { %"struct.std::__atomic_base.20" }
%"struct.std::__atomic_base.20" = type { ptr }
%"struct.std::atomic.21" = type { %"struct.std::__atomic_base.22" }
%"struct.std::__atomic_base.22" = type { ptr }
%"struct.std::atomic.23" = type { %"struct.std::__atomic_base.24" }
%"struct.std::__atomic_base.24" = type { i8 }
%"class.pxrInternal_v0_24__pxrReserved__::ArThreadLocalScopedCache" = type { %"class.tbb::detail::d1::enumerable_thread_specific.25" }
%"class.tbb::detail::d1::enumerable_thread_specific.25" = type { %"class.tbb::detail::d1::ets_base", ptr, %"class.tbb::detail::d1::concurrent_vector.26" }
%"class.tbb::detail::d1::concurrent_vector.26" = type { %"class.tbb::detail::d1::segment_table.base.32", [7 x i8] }
%"class.tbb::detail::d1::segment_table.base.32" = type <{ ptr, [8 x i8], %"struct.std::atomic.28", [3 x %"struct.std::atomic.30"], %"struct.std::atomic.17", %"struct.std::atomic.17", %"struct.std::atomic.23" }>
%"struct.std::atomic.28" = type { %"struct.std::__atomic_base.29" }
%"struct.std::__atomic_base.29" = type { ptr }
%"struct.std::atomic.30" = type { %"struct.std::__atomic_base.31" }
%"struct.std::__atomic_base.31" = type { ptr }
%"class.pxrInternal_v0_24__pxrReserved__::ArResolverContext" = type { %"class.std::vector" }
%"class.std::vector" = type { %"struct.std::_Vector_base" }
%"struct.std::_Vector_base" = type { %"struct.std::_Vector_base<std::shared_ptr<pxrInternal_v0_24__pxrReserved__::ArResolverContext::_Untyped>, std::allocator<std::shared_ptr<pxrInternal_v0_24__pxrReserved__::ArResolverContext::_Untyped>>>::_Vector_impl" }
%"struct.std::_Vector_base<std::shared_ptr<pxrInternal_v0_24__pxrReserved__::ArResolverContext::_Untyped>, std::allocator<std::shared_ptr<pxrInternal_v0_24__pxrReserved__::ArResolverContext::_Untyped>>>::_Vector_impl" = type { %"struct.std::_Vector_base<std::shared_ptr<pxrInternal_v0_24__pxrReserved__::ArResolverContext::_Untyped>, std::allocator<std::shared_ptr<pxrInternal_v0_24__pxrReserved__::ArResolverContext::_Untyped>>>::_Vector_impl_data" }
%"struct.std::_Vector_base<std::shared_ptr<pxrInternal_v0_24__pxrReserved__::ArResolverContext::_Untyped>, std::allocator<std::shared_ptr<pxrInternal_v0_24__pxrReserved__::ArResolverContext::_Untyped>>>::_Vector_impl_data" = type { ptr, ptr, ptr }

@__dso_handle = external hidden global i8
@_ZZN32pxrInternal_v0_24__pxrReserved__12_GLOBAL__N_112_GetResolverEvE8resolver = internal global %"class.pxrInternal_v0_24__pxrReserved__::(anonymous namespace)::_DispatchingResolver" zeroinitializer, align 8
@_ZGVZN32pxrInternal_v0_24__pxrReserved__12_GLOBAL__N_112_GetResolverEvE8resolver = internal global i64 0, align 8

; Function Attrs: mustprogress nounwind uwtable
define linkonce_odr void @_ZNSt15__new_allocatorISt10shared_ptrIN32pxrInternal_v0_24__pxrReserved__17ArResolverContext8_UntypedEEEC2Ev(ptr noundef nonnull align 1 dereferenceable(1) %0) unnamed_addr #2 comdat align 2 {
  %2 = alloca ptr, align 8
  store ptr %0, ptr %2, align 8
  ret void
}

; Function Attrs: mustprogress nounwind uwtable
define linkonce_odr void @_ZNSt12_Vector_baseISt10shared_ptrIN32pxrInternal_v0_24__pxrReserved__17ArResolverContext8_UntypedEESaIS4_EE17_Vector_impl_dataC2Ev(ptr noundef nonnull align 8 dereferenceable(24) %0) unnamed_addr #2 comdat align 2 {
  %2 = alloca ptr, align 8
  store ptr %0, ptr %2, align 8
  %3 = load ptr, ptr %2, align 8
  %4 = getelementptr inbounds nuw %"struct.std::_Vector_base<std::shared_ptr<pxrInternal_v0_24__pxrReserved__::ArResolverContext::_Untyped>, std::allocator<std::shared_ptr<pxrInternal_v0_24__pxrReserved__::ArResolverContext::_Untyped>>>::_Vector_impl_data", ptr %3, i32 0, i32 0
  store ptr null, ptr %4, align 8
  %5 = getelementptr inbounds nuw %"struct.std::_Vector_base<std::shared_ptr<pxrInternal_v0_24__pxrReserved__::ArResolverContext::_Untyped>, std::allocator<std::shared_ptr<pxrInternal_v0_24__pxrReserved__::ArResolverContext::_Untyped>>>::_Vector_impl_data", ptr %3, i32 0, i32 1
  store ptr null, ptr %5, align 8
  %6 = getelementptr inbounds nuw %"struct.std::_Vector_base<std::shared_ptr<pxrInternal_v0_24__pxrReserved__::ArResolverContext::_Untyped>, std::allocator<std::shared_ptr<pxrInternal_v0_24__pxrReserved__::ArResolverContext::_Untyped>>>::_Vector_impl_data", ptr %3, i32 0, i32 2
  store ptr null, ptr %6, align 8
  ret void
}

; Function Attrs: mustprogress nounwind uwtable
define linkonce_odr void @_ZNSaISt10shared_ptrIN32pxrInternal_v0_24__pxrReserved__17ArResolverContext8_UntypedEEEC2Ev(ptr noundef nonnull align 1 dereferenceable(1) %0) unnamed_addr #2 comdat align 2 {
  %2 = alloca ptr, align 8
  store ptr %0, ptr %2, align 8
  %3 = load ptr, ptr %2, align 8
  call void @_ZNSt15__new_allocatorISt10shared_ptrIN32pxrInternal_v0_24__pxrReserved__17ArResolverContext8_UntypedEEEC2Ev(ptr noundef nonnull align 1 dereferenceable(1) %3) #6
  ret void
}

; Function Attrs: mustprogress nounwind uwtable
define linkonce_odr void @_ZNSt12_Vector_baseISt10shared_ptrIN32pxrInternal_v0_24__pxrReserved__17ArResolverContext8_UntypedEESaIS4_EE12_Vector_implC2Ev(ptr noundef nonnull align 8 dereferenceable(24) %0) unnamed_addr #2 comdat align 2 {
  %2 = alloca ptr, align 8
  store ptr %0, ptr %2, align 8
  %3 = load ptr, ptr %2, align 8
  call void @_ZNSaISt10shared_ptrIN32pxrInternal_v0_24__pxrReserved__17ArResolverContext8_UntypedEEEC2Ev(ptr noundef nonnull align 1 dereferenceable(1) %3) #6
  call void @_ZNSt12_Vector_baseISt10shared_ptrIN32pxrInternal_v0_24__pxrReserved__17ArResolverContext8_UntypedEESaIS4_EE17_Vector_impl_dataC2Ev(ptr noundef nonnull align 8 dereferenceable(24) %3) #6
  ret void
}

; Function Attrs: mustprogress nounwind uwtable
define linkonce_odr void @_ZNSt12_Vector_baseISt10shared_ptrIN32pxrInternal_v0_24__pxrReserved__17ArResolverContext8_UntypedEESaIS4_EEC2Ev(ptr noundef nonnull align 8 dereferenceable(24) %0) unnamed_addr #2 comdat align 2 {
  %2 = alloca ptr, align 8
  store ptr %0, ptr %2, align 8
  %3 = load ptr, ptr %2, align 8
  %4 = getelementptr inbounds nuw %"struct.std::_Vector_base", ptr %3, i32 0, i32 0
  call void @_ZNSt12_Vector_baseISt10shared_ptrIN32pxrInternal_v0_24__pxrReserved__17ArResolverContext8_UntypedEESaIS4_EE12_Vector_implC2Ev(ptr noundef nonnull align 8 dereferenceable(24) %4) #6
  ret void
}

; Function Attrs: mustprogress nounwind uwtable
define internal noundef ptr @_ZNKSt12__shared_ptrIN32pxrInternal_v0_24__pxrReserved__12_GLOBAL__N_120_DispatchingResolver9_ResolverELN9__gnu_cxx12_Lock_policyE2EE3getEv(ptr noundef nonnull align 8 dereferenceable(16) %0) #2 align 2 {
  %2 = alloca ptr, align 8
  store ptr %0, ptr %2, align 8
  %3 = load ptr, ptr %2, align 8
  %4 = getelementptr inbounds nuw %"class.std::__shared_ptr", ptr %3, i32 0, i32 0
  %5 = load ptr, ptr %4, align 8
  ret ptr %5
}

; Function Attrs: mustprogress nounwind uwtable
define linkonce_odr void @_ZNSt6vectorISt10shared_ptrIN32pxrInternal_v0_24__pxrReserved__17ArResolverContext8_UntypedEESaIS4_EEC2Ev(ptr noundef nonnull align 8 dereferenceable(24) %0) unnamed_addr #2 comdat align 2 {
  %2 = alloca ptr, align 8
  store ptr %0, ptr %2, align 8
  %3 = load ptr, ptr %2, align 8
  call void @_ZNSt12_Vector_baseISt10shared_ptrIN32pxrInternal_v0_24__pxrReserved__17ArResolverContext8_UntypedEESaIS4_EEC2Ev(ptr noundef nonnull align 8 dereferenceable(24) %3) #6
  ret void
}

; Function Attrs: mustprogress nounwind uwtable
define internal noundef ptr @_ZNKSt19__shared_ptr_accessIN32pxrInternal_v0_24__pxrReserved__12_GLOBAL__N_120_DispatchingResolver9_ResolverELN9__gnu_cxx12_Lock_policyE2ELb0ELb0EE6_M_getEv(ptr noundef nonnull align 1 dereferenceable(1) %0) #2 align 2 {
  %2 = alloca ptr, align 8
  store ptr %0, ptr %2, align 8
  %3 = load ptr, ptr %2, align 8
  %4 = call noundef ptr @_ZNKSt12__shared_ptrIN32pxrInternal_v0_24__pxrReserved__12_GLOBAL__N_120_DispatchingResolver9_ResolverELN9__gnu_cxx12_Lock_policyE2EE3getEv(ptr noundef nonnull align 8 dereferenceable(16) %3) #6
  ret ptr %4
}

; Function Attrs: mustprogress nounwind uwtable
define linkonce_odr void @_ZN32pxrInternal_v0_24__pxrReserved__17ArResolverContextC2Ev(ptr noundef nonnull align 8 dereferenceable(24) %0) unnamed_addr #2 comdat align 2 {
  %2 = alloca ptr, align 8
  store ptr %0, ptr %2, align 8
  %3 = load ptr, ptr %2, align 8
  %4 = getelementptr inbounds nuw %"class.pxrInternal_v0_24__pxrReserved__::ArResolverContext", ptr %3, i32 0, i32 0
  call void @_ZNSt6vectorISt10shared_ptrIN32pxrInternal_v0_24__pxrReserved__17ArResolverContext8_UntypedEESaIS4_EEC2Ev(ptr noundef nonnull align 8 dereferenceable(24) %4) #6
  ret void
}

; Function Attrs: mustprogress uwtable
define void @_ZNK32pxrInternal_v0_24__pxrReserved__10ArResolver23CreateContextFromStringERKNSt7__cxx1112basic_stringIcSt11char_traitsIcESaIcEEE(ptr dead_on_unwind noalias writable sret(%"class.pxrInternal_v0_24__pxrReserved__::ArResolverContext") align 8 %0, ptr noundef nonnull align 8 dereferenceable(8) %1, ptr noundef nonnull align 8 dereferenceable(32) %2) #0 align 2 {
  %4 = alloca ptr, align 8
  %5 = alloca ptr, align 8
  %6 = alloca ptr, align 8
  store ptr %0, ptr %4, align 8
  store ptr %1, ptr %5, align 8
  store ptr %2, ptr %6, align 8
  %7 = load ptr, ptr %5, align 8
  %8 = load ptr, ptr %6, align 8
  %9 = load ptr, ptr %7, align 8
  %10 = getelementptr inbounds ptr, ptr %9, i64 10
  %11 = load ptr, ptr %10, align 8
  call void %11(ptr dead_on_unwind writable sret(%"class.pxrInternal_v0_24__pxrReserved__::ArResolverContext") align 8 %0, ptr noundef nonnull align 8 dereferenceable(8) %7, ptr noundef nonnull align 8 dereferenceable(32) %8)
  ret void
}

; Function Attrs: mustprogress nounwind uwtable
define internal noundef ptr @_ZNKSt19__shared_ptr_accessIN32pxrInternal_v0_24__pxrReserved__12_GLOBAL__N_120_DispatchingResolver9_ResolverELN9__gnu_cxx12_Lock_policyE2ELb0ELb0EEptEv(ptr noundef nonnull align 1 dereferenceable(1) %0) #2 align 2 {
  %2 = alloca ptr, align 8
  store ptr %0, ptr %2, align 8
  %3 = load ptr, ptr %2, align 8
  %4 = call noundef ptr @_ZNKSt19__shared_ptr_accessIN32pxrInternal_v0_24__pxrReserved__12_GLOBAL__N_120_DispatchingResolver9_ResolverELN9__gnu_cxx12_Lock_policyE2ELb0ELb0EE6_M_getEv(ptr noundef nonnull align 1 dereferenceable(1) %3) #6
  ret ptr %4
}

; Function Attrs: mustprogress uwtable
define internal void @_ZNK32pxrInternal_v0_24__pxrReserved__12_GLOBAL__N_120_DispatchingResolver23CreateContextFromStringERKNSt7__cxx1112basic_stringIcSt11char_traitsIcESaIcEEES9_(ptr dead_on_unwind noalias writable sret(%"class.pxrInternal_v0_24__pxrReserved__::ArResolverContext") align 8 %0, ptr noundef nonnull align 8 dereferenceable(320) %1, ptr noundef nonnull align 8 dereferenceable(32) %2, ptr noundef nonnull align 8 dereferenceable(32) %3) #0 align 2 {
  %5 = alloca ptr, align 8
  %6 = alloca ptr, align 8
  %7 = alloca ptr, align 8
  %8 = alloca ptr, align 8
  %9 = alloca ptr, align 8
  store ptr %0, ptr %5, align 8
  store ptr %1, ptr %6, align 8
  store ptr %2, ptr %7, align 8
  store ptr %3, ptr %8, align 8
  %10 = load ptr, ptr %6, align 8
  %11 = load ptr, ptr %7, align 8
  %12 = call noundef zeroext i1 @_ZNKSt7__cxx1112basic_stringIcSt11char_traitsIcESaIcEE5emptyEv(ptr noundef nonnull align 8 dereferenceable(32) %11) #6
  br i1 %12, label %13, label %17

13:                                               ; preds = %4
  %14 = getelementptr inbounds nuw %"class.pxrInternal_v0_24__pxrReserved__::(anonymous namespace)::_DispatchingResolver", ptr %10, i32 0, i32 1
  %15 = call noundef ptr @_ZNKSt19__shared_ptr_accessIN32pxrInternal_v0_24__pxrReserved__12_GLOBAL__N_120_DispatchingResolver9_ResolverELN9__gnu_cxx12_Lock_policyE2ELb0ELb0EEptEv(ptr noundef nonnull align 1 dereferenceable(1) %14) #6
  %16 = call noundef ptr @_ZN32pxrInternal_v0_24__pxrReserved__12_GLOBAL__N_115_PluginResolverINS_10ArResolverENS_22Ar_ResolverFactoryBaseEE3GetEv(ptr noundef nonnull align 8 dereferenceable(88) %15)
  br label %20

17:                                               ; preds = %4
  %18 = load ptr, ptr %7, align 8
  %19 = call noundef ptr @_ZNK32pxrInternal_v0_24__pxrReserved__12_GLOBAL__N_120_DispatchingResolver24_GetURIResolverForSchemeERKNSt7__cxx1112basic_stringIcSt11char_traitsIcESaIcEEEPPKNS0_13_ResolverInfoE(ptr noundef nonnull align 8 dereferenceable(320) %10, ptr noundef nonnull align 8 dereferenceable(32) %18, ptr noundef null)
  br label %20

20:                                               ; preds = %17, %13
  %21 = phi ptr [ %16, %13 ], [ %19, %17 ]
  store ptr %21, ptr %9, align 8
  %22 = load ptr, ptr %9, align 8
  %23 = icmp ne ptr %22, null
  br i1 %23, label %24, label %27

24:                                               ; preds = %20
  %25 = load ptr, ptr %9, align 8
  %26 = load ptr, ptr %8, align 8
  call void @_ZNK32pxrInternal_v0_24__pxrReserved__10ArResolver23CreateContextFromStringERKNSt7__cxx1112basic_stringIcSt11char_traitsIcESaIcEEE(ptr dead_on_unwind writable sret(%"class.pxrInternal_v0_24__pxrReserved__::ArResolverContext") align 8 %0, ptr noundef nonnull align 8 dereferenceable(8) %25, ptr noundef nonnull align 8 dereferenceable(32) %26)
  br label %28

27:                                               ; preds = %20
  call void @_ZN32pxrInternal_v0_24__pxrReserved__17ArResolverContextC2Ev(ptr noundef nonnull align 8 dereferenceable(24) %0)
  br label %28

28:                                               ; preds = %27, %24
  ret void
}

; Function Attrs: mustprogress uwtable
define internal noundef nonnull align 8 dereferenceable(320) ptr @_ZN32pxrInternal_v0_24__pxrReserved__12_GLOBAL__N_112_GetResolverEv() #0 personality ptr @__gxx_personality_v0 {
  %1 = alloca ptr, align 8
  %2 = alloca i32, align 4
  %3 = load atomic i8, ptr @_ZGVZN32pxrInternal_v0_24__pxrReserved__12_GLOBAL__N_112_GetResolverEvE8resolver acquire, align 8
  %4 = icmp eq i8 %3, 0
  br i1 %4, label %5, label %11, !prof !4

5:                                                ; preds = %0
  %6 = call i32 @__cxa_guard_acquire(ptr @_ZGVZN32pxrInternal_v0_24__pxrReserved__12_GLOBAL__N_112_GetResolverEvE8resolver) #6
  %7 = icmp ne i32 %6, 0
  br i1 %7, label %8, label %11

8:                                                ; preds = %5
  invoke void @_ZN32pxrInternal_v0_24__pxrReserved__12_GLOBAL__N_120_DispatchingResolverC2Ev(ptr noundef nonnull align 8 dereferenceable(320) @_ZZN32pxrInternal_v0_24__pxrReserved__12_GLOBAL__N_112_GetResolverEvE8resolver)
          to label %9 unwind label %12

9:                                                ; preds = %8
  %10 = call i32 @__cxa_atexit(ptr @_ZN32pxrInternal_v0_24__pxrReserved__12_GLOBAL__N_120_DispatchingResolverD2Ev, ptr @_ZZN32pxrInternal_v0_24__pxrReserved__12_GLOBAL__N_112_GetResolverEvE8resolver, ptr @__dso_handle) #6
  call void @__cxa_guard_release(ptr @_ZGVZN32pxrInternal_v0_24__pxrReserved__12_GLOBAL__N_112_GetResolverEvE8resolver) #6
  br label %11

11:                                               ; preds = %9, %5, %0
  ret ptr @_ZZN32pxrInternal_v0_24__pxrReserved__12_GLOBAL__N_112_GetResolverEvE8resolver

12:                                               ; preds = %8
  %13 = landingpad { ptr, i32 }
          cleanup
  %14 = extractvalue { ptr, i32 } %13, 0
  store ptr %14, ptr %1, align 8
  %15 = extractvalue { ptr, i32 } %13, 1
  store i32 %15, ptr %2, align 4
  call void @__cxa_guard_abort(ptr @_ZGVZN32pxrInternal_v0_24__pxrReserved__12_GLOBAL__N_112_GetResolverEvE8resolver) #6
  br label %16

16:                                               ; preds = %12
  %17 = load ptr, ptr %1, align 8
  %18 = load i32, ptr %2, align 4
  %19 = insertvalue { ptr, i32 } poison, ptr %17, 0
  %20 = insertvalue { ptr, i32 } %19, i32 %18, 1
  resume { ptr, i32 } %20
}

; Function Attrs: mustprogress uwtable
define void @_ZNK32pxrInternal_v0_24__pxrReserved__10ArResolver23CreateContextFromStringERKNSt7__cxx1112basic_stringIcSt11char_traitsIcESaIcEEES8_(ptr dead_on_unwind noalias writable sret(%"class.pxrInternal_v0_24__pxrReserved__::ArResolverContext") align 8 %0, ptr noundef nonnull align 8 dereferenceable(8) %1, ptr noundef nonnull align 8 dereferenceable(32) %2, ptr noundef nonnull align 8 dereferenceable(32) %3) #0 align 2 {
  %5 = alloca ptr, align 8
  %6 = alloca ptr, align 8
  %7 = alloca ptr, align 8
  %8 = alloca ptr, align 8
  store ptr %0, ptr %5, align 8
  store ptr %1, ptr %6, align 8
  store ptr %2, ptr %7, align 8
  store ptr %3, ptr %8, align 8
  %9 = call noundef nonnull align 8 dereferenceable(320) ptr @_ZN32pxrInternal_v0_24__pxrReserved__12_GLOBAL__N_112_GetResolverEv()
  %10 = load ptr, ptr %7, align 8
  %11 = load ptr, ptr %8, align 8
  call void @_ZNK32pxrInternal_v0_24__pxrReserved__12_GLOBAL__N_120_DispatchingResolver23CreateContextFromStringERKNSt7__cxx1112basic_stringIcSt11char_traitsIcESaIcEEES9_(ptr dead_on_unwind writable sret(%"class.pxrInternal_v0_24__pxrReserved__::ArResolverContext") align 8 %0, ptr noundef nonnull align 8 dereferenceable(320) %9, ptr noundef nonnull align 8 dereferenceable(32) %10, ptr noundef nonnull align 8 dereferenceable(32) %11)
  ret void
}