; Function Attrs: mustprogress uwtable
define void @_ZNK32pxrInternal_v0_24__pxrReserved__10ArResolver23CreateContextFromStringERKNSt7__cxx1112basic_stringIcSt11char_traitsIcESaIcEEES8_(ptr dead_on_unwind noalias writable sret(%"class.pxrInternal_v0_24__pxrReserved__::ArResolverContext") align 8 %0, ptr nocapture noundef nonnull readnone align 8 dereferenceable(8) %1, ptr noundef nonnull align 8 dereferenceable(32) %2, ptr noundef nonnull align 8 dereferenceable(32) %3) local_unnamed_addr #0 align 2 personality ptr @__gxx_personality_v0 {
  %5 = load atomic i8, ptr @_ZGVZN32pxrInternal_v0_24__pxrReserved__12_GLOBAL__N_112_GetResolverEvE8resolver acquire, align 8
  %6 = icmp eq i8 %5, 0
  br i1 %6, label %7, label %_ZN32pxrInternal_v0_24__pxrReserved__12_GLOBAL__N_112_GetResolverEv.exit, !prof !4

7:                                                ; preds = %4
  %8 = tail call i32 @__cxa_guard_acquire(ptr nonnull @_ZGVZN32pxrInternal_v0_24__pxrReserved__12_GLOBAL__N_112_GetResolverEvE8resolver) #15
  %.not.i = icmp eq i32 %8, 0
  br i1 %.not.i, label %_ZN32pxrInternal_v0_24__pxrReserved__12_GLOBAL__N_112_GetResolverEv.exit, label %9

9:                                                ; preds = %7
  invoke fastcc void @_ZN32pxrInternal_v0_24__pxrReserved__12_GLOBAL__N_120_DispatchingResolverC2Ev()
          to label %10 unwind label %12

10:                                               ; preds = %9
  %11 = tail call i32 @__cxa_atexit(ptr nonnull @_ZN32pxrInternal_v0_24__pxrReserved__12_GLOBAL__N_120_DispatchingResolverD2Ev, ptr nonnull @_ZZN32pxrInternal_v0_24__pxrReserved__12_GLOBAL__N_112_GetResolverEvE8resolver, ptr nonnull @__dso_handle) #15
  tail call void @__cxa_guard_release(ptr nonnull @_ZGVZN32pxrInternal_v0_24__pxrReserved__12_GLOBAL__N_112_GetResolverEvE8resolver) #15
  br label %_ZN32pxrInternal_v0_24__pxrReserved__12_GLOBAL__N_112_GetResolverEv.exit

12:                                               ; preds = %9
  %13 = landingpad { ptr, i32 }
          cleanup
  tail call void @__cxa_guard_abort(ptr nonnull @_ZGVZN32pxrInternal_v0_24__pxrReserved__12_GLOBAL__N_112_GetResolverEvE8resolver) #15
  resume { ptr, i32 } %13

_ZN32pxrInternal_v0_24__pxrReserved__12_GLOBAL__N_112_GetResolverEv.exit: ; preds = %4, %7, %10
  tail call void @llvm.experimental.noalias.scope.decl(metadata !5)
  %14 = tail call noundef zeroext i1 @_ZNKSt7__cxx1112basic_stringIcSt11char_traitsIcESaIcEE5emptyEv(ptr noundef nonnull align 8 dereferenceable(32) %2) #15, !noalias !5
  br i1 %14, label %15, label %17

15:                                               ; preds = %_ZN32pxrInternal_v0_24__pxrReserved__12_GLOBAL__N_112_GetResolverEv.exit
  %.val.i = load ptr, ptr getelementptr inbounds nuw (i8, ptr @_ZZN32pxrInternal_v0_24__pxrReserved__12_GLOBAL__N_112_GetResolverEvE8resolver, i64 8), align 8, !noalias !5
  %16 = tail call fastcc noundef ptr @_ZN32pxrInternal_v0_24__pxrReserved__12_GLOBAL__N_115_PluginResolverINS_10ArResolverENS_22Ar_ResolverFactoryBaseEE3GetEv(ptr noundef nonnull align 8 dereferenceable(88) %.val.i), !noalias !5
  br label %19

17:                                               ; preds = %_ZN32pxrInternal_v0_24__pxrReserved__12_GLOBAL__N_112_GetResolverEv.exit
  %18 = tail call fastcc noundef ptr @_ZNK32pxrInternal_v0_24__pxrReserved__12_GLOBAL__N_120_DispatchingResolver24_GetURIResolverForSchemeERKNSt7__cxx1112basic_stringIcSt11char_traitsIcESaIcEEEPPKNS0_13_ResolverInfoE(ptr noundef nonnull align 8 dereferenceable(320) @_ZZN32pxrInternal_v0_24__pxrReserved__12_GLOBAL__N_112_GetResolverEvE8resolver, ptr noundef nonnull align 8 dereferenceable(32) %2, ptr noundef null), !noalias !5
  br label %19

19:                                               ; preds = %17, %15
  %20 = phi ptr [ %16, %15 ], [ %18, %17 ]
  %.not.i2 = icmp eq ptr %20, null
  br i1 %.not.i2, label %25, label %21

21:                                               ; preds = %19
  %22 = load ptr, ptr %20, align 8, !noalias !8
  %23 = getelementptr inbounds i8, ptr %22, i64 80
  %24 = load ptr, ptr %23, align 8, !noalias !8
  tail call void %24(ptr dead_on_unwind writable sret(%"class.pxrInternal_v0_24__pxrReserved__::ArResolverContext") align 8 %0, ptr noundef nonnull align 8 dereferenceable(8) %20, ptr noundef nonnull align 8 dereferenceable(32) %3)
  br label %_ZNK32pxrInternal_v0_24__pxrReserved__12_GLOBAL__N_120_DispatchingResolver23CreateContextFromStringERKNSt7__cxx1112basic_stringIcSt11char_traitsIcESaIcEEES9_.exit

25:                                               ; preds = %19
  tail call void @llvm.memset.p0.i64(ptr noundef nonnull align 8 dereferenceable(24) %0, i8 0, i64 24, i1 false), !alias.scope !5
  br label %_ZNK32pxrInternal_v0_24__pxrReserved__12_GLOBAL__N_120_DispatchingResolver23CreateContextFromStringERKNSt7__cxx1112basic_stringIcSt11char_traitsIcESaIcEEES9_.exit

_ZNK32pxrInternal_v0_24__pxrReserved__12_GLOBAL__N_120_DispatchingResolver23CreateContextFromStringERKNSt7__cxx1112basic_stringIcSt11char_traitsIcESaIcEEES9_.exit: ; preds = %21, %25
  ret void
}